---
triple:          'arm64-apple-darwin'
binary-path:     '/Users/hardiksoni/CP/C_Triple_Attack.bin'
relocations:
  - { offsetInCU: 0x3F, offset: 0x3F, size: 0x8, addend: 0x0, symName: _MOD, symObjAddr: 0x1598, symBinAddr: 0x100008000, symSize: 0x0 }
  - { offsetInCU: 0x66, offset: 0x66, size: 0x8, addend: 0x0, symName: _eps, symObjAddr: 0x15A0, symBinAddr: 0x100008008, symSize: 0x0 }
  - { offsetInCU: 0x5E14, offset: 0x5E14, size: 0x8, addend: 0x0, symName: __ZNSt3__14endlB8ue170006IcNS_11char_traitsIcEEEERNS_13basic_ostreamIT_T0_EES7_, symObjAddr: 0x1C0, symBinAddr: 0x10000294C, symSize: 0x58 }
  - { offsetInCU: 0x5E54, offset: 0x5E54, size: 0x8, addend: 0x0, symName: __ZNSt3__122__make_exception_guardB8ue170006INS_6vectorIxNS_9allocatorIxEEE16__destroy_vectorEEENS_28__exception_guard_exceptionsIT_EES7_, symObjAddr: 0x434, symBinAddr: 0x100002BC0, symSize: 0x40 }
  - { offsetInCU: 0x5E89, offset: 0x5E89, size: 0x8, addend: 0x0, symName: __ZNSt3__119__allocate_at_leastB8ue170006INS_9allocatorIxEEEENS_19__allocation_resultINS_16allocator_traitsIT_E7pointerEEERS5_m, symObjAddr: 0x820, symBinAddr: 0x100002FAC, symSize: 0x40 }
  - { offsetInCU: 0x5ECC, offset: 0x5ECC, size: 0x8, addend: 0x0, symName: __ZNSt3__13minB8ue170006ImEERKT_S3_S3_, symObjAddr: 0x95C, symBinAddr: 0x1000030E8, symSize: 0x2C }
  - { offsetInCU: 0x60F9, offset: 0x60F9, size: 0x8, addend: 0x0, symName: __ZNSt3__13minB8ue170006ImNS_6__lessIvvEEEERKT_S5_S5_T0_, symObjAddr: 0x9F4, symBinAddr: 0x100003180, symSize: 0x54 }
  - { offsetInCU: 0x6198, offset: 0x6198, size: 0x8, addend: 0x0, symName: __ZNSt3__120__throw_length_errorB8ue170006EPKc, symObjAddr: 0xAD0, symBinAddr: 0x10000325C, symSize: 0x64 }
  - { offsetInCU: 0x61C2, offset: 0x61C2, size: 0x8, addend: 0x0, symName: __ZNSt3__117__libcpp_allocateB8ue170006Emm, symObjAddr: 0xC40, symBinAddr: 0x1000033CC, symSize: 0x60 }
  - { offsetInCU: 0x621C, offset: 0x621C, size: 0x8, addend: 0x0, symName: __ZNSt3__124__is_overaligned_for_newB8ue170006Em, symObjAddr: 0xCA0, symBinAddr: 0x10000342C, symSize: 0x20 }
  - { offsetInCU: 0x624A, offset: 0x624A, size: 0x8, addend: 0x0, symName: __ZNSt3__121__libcpp_operator_newB8ue170006IJmSt11align_val_tEEEPvDpT_, symObjAddr: 0xCC0, symBinAddr: 0x10000344C, symSize: 0x2C }
  - { offsetInCU: 0x6297, offset: 0x6297, size: 0x8, addend: 0x0, symName: __ZNSt3__121__libcpp_operator_newB8ue170006IJmEEEPvDpT_, symObjAddr: 0xCEC, symBinAddr: 0x100003478, symSize: 0x24 }
  - { offsetInCU: 0x62D0, offset: 0x62D0, size: 0x8, addend: 0x0, symName: __ZNSt3__112__to_addressB8ue170006IxEEPT_S2_, symObjAddr: 0xE08, symBinAddr: 0x100003594, symSize: 0x14 }
  - { offsetInCU: 0x6305, offset: 0x6305, size: 0x8, addend: 0x0, symName: __ZNSt3__119__libcpp_deallocateB8ue170006EPvmm, symObjAddr: 0x12B8, symBinAddr: 0x100003A44, symSize: 0x60 }
  - { offsetInCU: 0x636A, offset: 0x636A, size: 0x8, addend: 0x0, symName: __ZNSt3__127__do_deallocate_handle_sizeB8ue170006IJSt11align_val_tEEEvPvmDpT_, symObjAddr: 0x1318, symBinAddr: 0x100003AA4, symSize: 0x30 }
  - { offsetInCU: 0x63BD, offset: 0x63BD, size: 0x8, addend: 0x0, symName: __ZNSt3__127__do_deallocate_handle_sizeB8ue170006IJEEEvPvmDpT_, symObjAddr: 0x1348, symBinAddr: 0x100003AD4, symSize: 0x28 }
  - { offsetInCU: 0x63FB, offset: 0x63FB, size: 0x8, addend: 0x0, symName: __ZNSt3__124__libcpp_operator_deleteB8ue170006IJPvSt11align_val_tEEEvDpT_, symObjAddr: 0x1370, symBinAddr: 0x100003AFC, symSize: 0x2C }
  - { offsetInCU: 0x6444, offset: 0x6444, size: 0x8, addend: 0x0, symName: __ZNSt3__124__libcpp_operator_deleteB8ue170006IJPvEEEvDpT_, symObjAddr: 0x139C, symBinAddr: 0x100003B28, symSize: 0x24 }
  - { offsetInCU: 0x6479, offset: 0x6479, size: 0x8, addend: 0x0, symName: __ZNSt3__19use_facetB8ue170006INS_5ctypeIcEEEERKT_RKNS_6localeE, symObjAddr: 0x1484, symBinAddr: 0x100003C10, symSize: 0x2C }
  - { offsetInCU: 0x6C27, offset: 0x6C27, size: 0x8, addend: 0x0, symName: __ZSt28__throw_bad_array_new_lengthB8ue170006v, symObjAddr: 0xC0C, symBinAddr: 0x100003398, symSize: 0x34 }
  - { offsetInCU: 0x957D, offset: 0x957D, size: 0x8, addend: 0x0, symName: __Z5solvev, symObjAddr: 0x0, symBinAddr: 0x10000278C, symSize: 0x13C }
  - { offsetInCU: 0x95E2, offset: 0x95E2, size: 0x8, addend: 0x0, symName: __ZNSt3__16vectorIxNS_9allocatorIxEEEC1Em, symObjAddr: 0x13C, symBinAddr: 0x1000028C8, symSize: 0x34 }
  - { offsetInCU: 0x961D, offset: 0x961D, size: 0x8, addend: 0x0, symName: __ZNSt3__16vectorIxNS_9allocatorIxEEEixB8ue170006Em, symObjAddr: 0x170, symBinAddr: 0x1000028FC, symSize: 0x24 }
  - { offsetInCU: 0x9701, offset: 0x9701, size: 0x8, addend: 0x0, symName: __ZNSt3__113basic_ostreamIcNS_11char_traitsIcEEElsB8ue170006EPFRS3_S4_E, symObjAddr: 0x194, symBinAddr: 0x100002920, symSize: 0x2C }
  - { offsetInCU: 0x9735, offset: 0x9735, size: 0x8, addend: 0x0, symName: __ZNSt3__16vectorIxNS_9allocatorIxEEED1B8ue170006Ev, symObjAddr: 0x218, symBinAddr: 0x1000029A4, symSize: 0x2C }
  - { offsetInCU: 0x975F, offset: 0x975F, size: 0x8, addend: 0x0, symName: _main, symObjAddr: 0x244, symBinAddr: 0x1000029D0, symSize: 0xB4 }
  - { offsetInCU: 0x97A6, offset: 0x97A6, size: 0x8, addend: 0x0, symName: __ZNSt3__19basic_iosIcNS_11char_traitsIcEEE3tieB8ue170006EPNS_13basic_ostreamIcS2_EE, symObjAddr: 0x2F8, symBinAddr: 0x100002A84, symSize: 0x2C }
  - { offsetInCU: 0x97EC, offset: 0x97EC, size: 0x8, addend: 0x0, symName: __ZNSt3__16vectorIxNS_9allocatorIxEEEC2Em, symObjAddr: 0x324, symBinAddr: 0x100002AB0, symSize: 0xD4 }
  - { offsetInCU: 0x9847, offset: 0x9847, size: 0x8, addend: 0x0, symName: __ZNSt3__117__compressed_pairIPxNS_9allocatorIxEEEC1B8ue170006IDnNS_18__default_init_tagEEEOT_OT0_, symObjAddr: 0x3F8, symBinAddr: 0x100002B84, symSize: 0x3C }
  - { offsetInCU: 0x989F, offset: 0x989F, size: 0x8, addend: 0x0, symName: __ZNSt3__16vectorIxNS_9allocatorIxEEE16__destroy_vectorC1B8ue170006ERS3_, symObjAddr: 0x474, symBinAddr: 0x100002C00, symSize: 0x34 }
  - { offsetInCU: 0x98D8, offset: 0x98D8, size: 0x8, addend: 0x0, symName: __ZNSt3__16vectorIxNS_9allocatorIxEEE11__vallocateB8ue170006Em, symObjAddr: 0x4A8, symBinAddr: 0x100002C34, symSize: 0xAC }
  - { offsetInCU: 0x991C, offset: 0x991C, size: 0x8, addend: 0x0, symName: __ZNSt3__16vectorIxNS_9allocatorIxEEE18__construct_at_endEm, symObjAddr: 0x554, symBinAddr: 0x100002CE0, symSize: 0xC8 }
  - { offsetInCU: 0x998E, offset: 0x998E, size: 0x8, addend: 0x0, symName: __ZNSt3__128__exception_guard_exceptionsINS_6vectorIxNS_9allocatorIxEEE16__destroy_vectorEE10__completeB8ue170006Ev, symObjAddr: 0x61C, symBinAddr: 0x100002DA8, symSize: 0x1C }
  - { offsetInCU: 0x99B4, offset: 0x99B4, size: 0x8, addend: 0x0, symName: __ZNSt3__128__exception_guard_exceptionsINS_6vectorIxNS_9allocatorIxEEE16__destroy_vectorEED1B8ue170006Ev, symObjAddr: 0x638, symBinAddr: 0x100002DC4, symSize: 0x2C }
  - { offsetInCU: 0x99DE, offset: 0x99DE, size: 0x8, addend: 0x0, symName: __ZNSt3__117__compressed_pairIPxNS_9allocatorIxEEEC2B8ue170006IDnNS_18__default_init_tagEEEOT_OT0_, symObjAddr: 0x664, symBinAddr: 0x100002DF0, symSize: 0x40 }
  - { offsetInCU: 0x9A36, offset: 0x9A36, size: 0x8, addend: 0x0, symName: __ZNSt3__122__compressed_pair_elemIPxLi0ELb0EEC2B8ue170006IDnvEEOT_, symObjAddr: 0x6A4, symBinAddr: 0x100002E30, symSize: 0x1C }
  - { offsetInCU: 0x9A78, offset: 0x9A78, size: 0x8, addend: 0x0, symName: __ZNSt3__122__compressed_pair_elemINS_9allocatorIxEELi1ELb1EEC2B8ue170006ENS_18__default_init_tagE, symObjAddr: 0x6C0, symBinAddr: 0x100002E4C, symSize: 0x2C }
  - { offsetInCU: 0x9AAD, offset: 0x9AAD, size: 0x8, addend: 0x0, symName: __ZNSt3__19allocatorIxEC2B8ue170006Ev, symObjAddr: 0x6EC, symBinAddr: 0x100002E78, symSize: 0x2C }
  - { offsetInCU: 0x9AD7, offset: 0x9AD7, size: 0x8, addend: 0x0, symName: __ZNSt3__116__non_trivial_ifILb1ENS_9allocatorIxEEEC2B8ue170006Ev, symObjAddr: 0x718, symBinAddr: 0x100002EA4, symSize: 0x14 }
  - { offsetInCU: 0x9B01, offset: 0x9B01, size: 0x8, addend: 0x0, symName: __ZNSt3__128__exception_guard_exceptionsINS_6vectorIxNS_9allocatorIxEEE16__destroy_vectorEEC1B8ue170006ES5_, symObjAddr: 0x72C, symBinAddr: 0x100002EB8, symSize: 0x34 }
  - { offsetInCU: 0x9B39, offset: 0x9B39, size: 0x8, addend: 0x0, symName: __ZNSt3__128__exception_guard_exceptionsINS_6vectorIxNS_9allocatorIxEEE16__destroy_vectorEEC2B8ue170006ES5_, symObjAddr: 0x760, symBinAddr: 0x100002EEC, symSize: 0x24 }
  - { offsetInCU: 0x9B71, offset: 0x9B71, size: 0x8, addend: 0x0, symName: __ZNSt3__16vectorIxNS_9allocatorIxEEE16__destroy_vectorC2B8ue170006ERS3_, symObjAddr: 0x784, symBinAddr: 0x100002F10, symSize: 0x20 }
  - { offsetInCU: 0x9BAA, offset: 0x9BAA, size: 0x8, addend: 0x0, symName: __ZNKSt3__16vectorIxNS_9allocatorIxEEE8max_sizeEv, symObjAddr: 0x7A4, symBinAddr: 0x100002F30, symSize: 0x60 }
  - { offsetInCU: 0x9BD2, offset: 0x9BD2, size: 0x8, addend: 0x0, symName: __ZNKSt3__16vectorIxNS_9allocatorIxEEE20__throw_length_errorB8ue170006Ev, symObjAddr: 0x804, symBinAddr: 0x100002F90, symSize: 0x1C }
  - { offsetInCU: 0x9BF8, offset: 0x9BF8, size: 0x8, addend: 0x0, symName: __ZNSt3__16vectorIxNS_9allocatorIxEEE7__allocB8ue170006Ev, symObjAddr: 0x860, symBinAddr: 0x100002FEC, symSize: 0x28 }
  - { offsetInCU: 0x9C1E, offset: 0x9C1E, size: 0x8, addend: 0x0, symName: __ZNSt3__16vectorIxNS_9allocatorIxEEE9__end_capB8ue170006Ev, symObjAddr: 0x888, symBinAddr: 0x100003014, symSize: 0x28 }
  - { offsetInCU: 0x9C44, offset: 0x9C44, size: 0x8, addend: 0x0, symName: __ZNKSt3__16vectorIxNS_9allocatorIxEEE14__annotate_newB8ue170006Em, symObjAddr: 0x8B0, symBinAddr: 0x10000303C, symSize: 0xAC }
  - { offsetInCU: 0x9C83, offset: 0x9C83, size: 0x8, addend: 0x0, symName: __ZNSt3__116allocator_traitsINS_9allocatorIxEEE8max_sizeB8ue170006IS2_vEEmRKS2_, symObjAddr: 0x988, symBinAddr: 0x100003114, symSize: 0x24 }
  - { offsetInCU: 0x9CB1, offset: 0x9CB1, size: 0x8, addend: 0x0, symName: __ZNKSt3__16vectorIxNS_9allocatorIxEEE7__allocB8ue170006Ev, symObjAddr: 0x9AC, symBinAddr: 0x100003138, symSize: 0x28 }
  - { offsetInCU: 0x9CD7, offset: 0x9CD7, size: 0x8, addend: 0x0, symName: __ZNSt3__114numeric_limitsIlE3maxB8ue170006Ev, symObjAddr: 0x9D4, symBinAddr: 0x100003160, symSize: 0x14 }
  - { offsetInCU: 0x9CFF, offset: 0x9CFF, size: 0x8, addend: 0x0, symName: __ZNKSt3__16__lessIvvEclB8ue170006ImmEEbRKT_RKT0_, symObjAddr: 0xA48, symBinAddr: 0x1000031D4, symSize: 0x34 }
  - { offsetInCU: 0x9D53, offset: 0x9D53, size: 0x8, addend: 0x0, symName: __ZNKSt3__19allocatorIxE8max_sizeB8ue170006Ev, symObjAddr: 0xA7C, symBinAddr: 0x100003208, symSize: 0x14 }
  - { offsetInCU: 0x9D79, offset: 0x9D79, size: 0x8, addend: 0x0, symName: __ZNKSt3__117__compressed_pairIPxNS_9allocatorIxEEE6secondB8ue170006Ev, symObjAddr: 0xA90, symBinAddr: 0x10000321C, symSize: 0x24 }
  - { offsetInCU: 0x9D9F, offset: 0x9D9F, size: 0x8, addend: 0x0, symName: __ZNKSt3__122__compressed_pair_elemINS_9allocatorIxEELi1ELb1EE5__getB8ue170006Ev, symObjAddr: 0xAB4, symBinAddr: 0x100003240, symSize: 0x14 }
  - { offsetInCU: 0x9DC5, offset: 0x9DC5, size: 0x8, addend: 0x0, symName: __ZNSt3__123__libcpp_numeric_limitsIlLb1EE3maxB8ue170006Ev, symObjAddr: 0xAC8, symBinAddr: 0x100003254, symSize: 0x8 }
  - { offsetInCU: 0x9DD9, offset: 0x9DD9, size: 0x8, addend: 0x0, symName: __ZNSt12length_errorC1B8ue170006EPKc, symObjAddr: 0xB34, symBinAddr: 0x1000032C0, symSize: 0x34 }
  - { offsetInCU: 0x9E11, offset: 0x9E11, size: 0x8, addend: 0x0, symName: __ZNSt12length_errorC2B8ue170006EPKc, symObjAddr: 0xB68, symBinAddr: 0x1000032F4, symSize: 0x4C }
  - { offsetInCU: 0x9E49, offset: 0x9E49, size: 0x8, addend: 0x0, symName: __ZNSt3__19allocatorIxE8allocateB8ue170006Em, symObjAddr: 0xBB4, symBinAddr: 0x100003340, symSize: 0x58 }
  - { offsetInCU: 0x9E7D, offset: 0x9E7D, size: 0x8, addend: 0x0, symName: __ZNSt3__117__compressed_pairIPxNS_9allocatorIxEEE6secondB8ue170006Ev, symObjAddr: 0xD10, symBinAddr: 0x10000349C, symSize: 0x24 }
  - { offsetInCU: 0x9EA3, offset: 0x9EA3, size: 0x8, addend: 0x0, symName: __ZNSt3__122__compressed_pair_elemINS_9allocatorIxEELi1ELb1EE5__getB8ue170006Ev, symObjAddr: 0xD34, symBinAddr: 0x1000034C0, symSize: 0x14 }
  - { offsetInCU: 0x9EC9, offset: 0x9EC9, size: 0x8, addend: 0x0, symName: __ZNSt3__117__compressed_pairIPxNS_9allocatorIxEEE5firstB8ue170006Ev, symObjAddr: 0xD48, symBinAddr: 0x1000034D4, symSize: 0x24 }
  - { offsetInCU: 0x9EEF, offset: 0x9EEF, size: 0x8, addend: 0x0, symName: __ZNSt3__122__compressed_pair_elemIPxLi0ELb0EE5__getB8ue170006Ev, symObjAddr: 0xD6C, symBinAddr: 0x1000034F8, symSize: 0x14 }
  - { offsetInCU: 0x9F15, offset: 0x9F15, size: 0x8, addend: 0x0, symName: __ZNKSt3__16vectorIxNS_9allocatorIxEEE31__annotate_contiguous_containerB8ue170006EPKvS5_S5_S5_, symObjAddr: 0xD80, symBinAddr: 0x10000350C, symSize: 0x20 }
  - { offsetInCU: 0x9F6B, offset: 0x9F6B, size: 0x8, addend: 0x0, symName: __ZNKSt3__16vectorIxNS_9allocatorIxEEE4dataB8ue170006Ev, symObjAddr: 0xDA0, symBinAddr: 0x10000352C, symSize: 0x28 }
  - { offsetInCU: 0x9F91, offset: 0x9F91, size: 0x8, addend: 0x0, symName: __ZNKSt3__16vectorIxNS_9allocatorIxEEE8capacityB8ue170006Ev, symObjAddr: 0xDC8, symBinAddr: 0x100003554, symSize: 0x40 }
  - { offsetInCU: 0x9FB7, offset: 0x9FB7, size: 0x8, addend: 0x0, symName: __ZNKSt3__16vectorIxNS_9allocatorIxEEE9__end_capB8ue170006Ev, symObjAddr: 0xE1C, symBinAddr: 0x1000035A8, symSize: 0x28 }
  - { offsetInCU: 0x9FDD, offset: 0x9FDD, size: 0x8, addend: 0x0, symName: __ZNKSt3__117__compressed_pairIPxNS_9allocatorIxEEE5firstB8ue170006Ev, symObjAddr: 0xE44, symBinAddr: 0x1000035D0, symSize: 0x24 }
  - { offsetInCU: 0xA003, offset: 0xA003, size: 0x8, addend: 0x0, symName: __ZNKSt3__122__compressed_pair_elemIPxLi0ELb0EE5__getB8ue170006Ev, symObjAddr: 0xE68, symBinAddr: 0x1000035F4, symSize: 0x14 }
  - { offsetInCU: 0xA042, offset: 0xA042, size: 0x8, addend: 0x0, symName: __ZNSt3__16vectorIxNS_9allocatorIxEEE21_ConstructTransactionC1B8ue170006ERS3_m, symObjAddr: 0xE7C, symBinAddr: 0x100003608, symSize: 0x3C }
  - { offsetInCU: 0xA08A, offset: 0xA08A, size: 0x8, addend: 0x0, symName: __ZNSt3__116allocator_traitsINS_9allocatorIxEEE9constructB8ue170006IxJEvEEvRS2_PT_DpOT0_, symObjAddr: 0xEB8, symBinAddr: 0x100003644, symSize: 0x2C }
  - { offsetInCU: 0xA0CC, offset: 0xA0CC, size: 0x8, addend: 0x0, symName: __ZNSt3__16vectorIxNS_9allocatorIxEEE21_ConstructTransactionD1B8ue170006Ev, symObjAddr: 0xEE4, symBinAddr: 0x100003670, symSize: 0x2C }
  - { offsetInCU: 0xA0F6, offset: 0xA0F6, size: 0x8, addend: 0x0, symName: __ZNSt3__16vectorIxNS_9allocatorIxEEE21_ConstructTransactionC2B8ue170006ERS3_m, symObjAddr: 0xF10, symBinAddr: 0x10000369C, symSize: 0x44 }
  - { offsetInCU: 0xA13E, offset: 0xA13E, size: 0x8, addend: 0x0, symName: __ZNSt3__19allocatorIxE9constructB8ue170006IxJEEEvPT_DpOT0_, symObjAddr: 0xF54, symBinAddr: 0x1000036E0, symSize: 0x1C }
  - { offsetInCU: 0xA180, offset: 0xA180, size: 0x8, addend: 0x0, symName: __ZNSt3__16vectorIxNS_9allocatorIxEEE21_ConstructTransactionD2B8ue170006Ev, symObjAddr: 0xF70, symBinAddr: 0x1000036FC, symSize: 0x20 }
  - { offsetInCU: 0xA1AA, offset: 0xA1AA, size: 0x8, addend: 0x0, symName: __ZNSt3__128__exception_guard_exceptionsINS_6vectorIxNS_9allocatorIxEEE16__destroy_vectorEED2B8ue170006Ev, symObjAddr: 0xF90, symBinAddr: 0x10000371C, symSize: 0x50 }
  - { offsetInCU: 0xA1D4, offset: 0xA1D4, size: 0x8, addend: 0x0, symName: __ZNSt3__16vectorIxNS_9allocatorIxEEE16__destroy_vectorclB8ue170006Ev, symObjAddr: 0xFE0, symBinAddr: 0x10000376C, symSize: 0x90 }
  - { offsetInCU: 0xA1FA, offset: 0xA1FA, size: 0x8, addend: 0x0, symName: __ZNSt3__16vectorIxNS_9allocatorIxEEE7__clearB8ue170006Ev, symObjAddr: 0x1070, symBinAddr: 0x1000037FC, symSize: 0x28 }
  - { offsetInCU: 0xA220, offset: 0xA220, size: 0x8, addend: 0x0, symName: __ZNKSt3__16vectorIxNS_9allocatorIxEEE17__annotate_deleteB8ue170006Ev, symObjAddr: 0x1098, symBinAddr: 0x100003824, symSize: 0xB8 }
  - { offsetInCU: 0xA246, offset: 0xA246, size: 0x8, addend: 0x0, symName: __ZNSt3__116allocator_traitsINS_9allocatorIxEEE10deallocateB8ue170006ERS2_Pxm, symObjAddr: 0x1150, symBinAddr: 0x1000038DC, symSize: 0x34 }
  - { offsetInCU: 0xA288, offset: 0xA288, size: 0x8, addend: 0x0, symName: __ZNSt3__16vectorIxNS_9allocatorIxEEE22__base_destruct_at_endB8ue170006EPx, symObjAddr: 0x1184, symBinAddr: 0x100003910, symSize: 0x8C }
  - { offsetInCU: 0xA2CC, offset: 0xA2CC, size: 0x8, addend: 0x0, symName: __ZNSt3__116allocator_traitsINS_9allocatorIxEEE7destroyB8ue170006IxvEEvRS2_PT_, symObjAddr: 0x1210, symBinAddr: 0x10000399C, symSize: 0x2C }
  - { offsetInCU: 0xA309, offset: 0xA309, size: 0x8, addend: 0x0, symName: __ZNSt3__19allocatorIxE7destroyB8ue170006EPx, symObjAddr: 0x123C, symBinAddr: 0x1000039C8, symSize: 0x14 }
  - { offsetInCU: 0xA33D, offset: 0xA33D, size: 0x8, addend: 0x0, symName: __ZNKSt3__16vectorIxNS_9allocatorIxEEE4sizeB8ue170006Ev, symObjAddr: 0x1250, symBinAddr: 0x1000039DC, symSize: 0x28 }
  - { offsetInCU: 0xA363, offset: 0xA363, size: 0x8, addend: 0x0, symName: __ZNSt3__19allocatorIxE10deallocateB8ue170006EPxm, symObjAddr: 0x1278, symBinAddr: 0x100003A04, symSize: 0x40 }
  - { offsetInCU: 0xA3A5, offset: 0xA3A5, size: 0x8, addend: 0x0, symName: __ZNSt3__16vectorIxNS_9allocatorIxEEED2B8ue170006Ev, symObjAddr: 0x13C0, symBinAddr: 0x100003B4C, symSize: 0x40 }
  - { offsetInCU: 0xA3CF, offset: 0xA3CF, size: 0x8, addend: 0x0, symName: __ZNKSt3__19basic_iosIcNS_11char_traitsIcEEE5widenB8ue170006Ec, symObjAddr: 0x1400, symBinAddr: 0x100003B8C, symSize: 0x84 }
  - { offsetInCU: 0xA43D, offset: 0xA43D, size: 0x8, addend: 0x0, symName: __ZNKSt3__15ctypeIcE5widenB8ue170006Ec, symObjAddr: 0x14B0, symBinAddr: 0x100003C3C, symSize: 0x38 }
...
